target datalayout = "e-m:e-p270:32:32-p271:32:32-p272:64:64-i64:64-i128:128-f80:128-n8:16:32:64-S128"
target triple = "x86_64-pc-linux-gnu"

; Function Attrs: mustprogress nounwind uwtable
define internal void @_ZL27mbedtls_ct_mem_move_to_leftPvmm(ptr noundef %0, i64 noundef %1, i64 noundef %2) #0 {
  %4 = alloca ptr, align 8
  %5 = alloca i64, align 8
  %6 = alloca i64, align 8
  %7 = alloca ptr, align 8
  %8 = alloca i64, align 8
  %9 = alloca i64, align 8
  %10 = alloca i32, align 4
  %11 = alloca i32, align 4
  %12 = alloca i8, align 1
  %13 = alloca i8, align 1
  store ptr %0, ptr %4, align 8, !tbaa !3
  store i64 %1, ptr %5, align 8, !tbaa !7
  store i64 %2, ptr %6, align 8, !tbaa !7
  call void @llvm.lifetime.start.p0(i64 8, ptr %7) #5
  %14 = load ptr, ptr %4, align 8, !tbaa !3
  store ptr %14, ptr %7, align 8, !tbaa !9
  call void @llvm.lifetime.start.p0(i64 8, ptr %8) #5
  call void @llvm.lifetime.start.p0(i64 8, ptr %9) #5
  %15 = load i64, ptr %5, align 8, !tbaa !7
  %16 = icmp eq i64 %15, 0
  br i1 %16, label %17, label %18

17:                                               ; preds = %3
  store i32 1, ptr %10, align 4
  br label %75

18:                                               ; preds = %3
  store i64 0, ptr %8, align 8, !tbaa !7
  br label %19

19:                                               ; preds = %71, %18
  %20 = load i64, ptr %8, align 8, !tbaa !7
  %21 = load i64, ptr %5, align 8, !tbaa !7
  %22 = icmp ult i64 %20, %21
  br i1 %22, label %23, label %74

23:                                               ; preds = %19
  call void @llvm.lifetime.start.p0(i64 4, ptr %11) #5
  %24 = load i64, ptr %5, align 8, !tbaa !7
  %25 = load i64, ptr %6, align 8, !tbaa !7
  %26 = sub i64 %24, %25
  %27 = load i64, ptr %8, align 8, !tbaa !7
  %28 = call noundef i32 @_ZL18mbedtls_ct_size_gtmm(i64 noundef %26, i64 noundef %27)
  store i32 %28, ptr %11, align 4, !tbaa !14
  store i64 0, ptr %9, align 8, !tbaa !7
  br label %29

29:                                               ; preds = %54, %23
  %30 = load i64, ptr %9, align 8, !tbaa !7
  %31 = load i64, ptr %5, align 8, !tbaa !7
  %32 = sub i64 %31, 1
  %33 = icmp ult i64 %30, %32
  br i1 %33, label %34, label %57

34:                                               ; preds = %29
  call void @llvm.lifetime.start.p0(i64 1, ptr %12) #5
  %35 = load ptr, ptr %7, align 8, !tbaa !9
  %36 = load i64, ptr %9, align 8, !tbaa !7
  %37 = getelementptr inbounds nuw i8, ptr %35, i64 %36
  %38 = load volatile i8, ptr %37, align 1, !tbaa !11
  store i8 %38, ptr %12, align 1, !tbaa !11
  call void @llvm.lifetime.start.p0(i64 1, ptr %13) #5
  %39 = load ptr, ptr %7, align 8, !tbaa !9
  %40 = load i64, ptr %9, align 8, !tbaa !7
  %41 = add i64 %40, 1
  %42 = getelementptr inbounds nuw i8, ptr %39, i64 %41
  %43 = load volatile i8, ptr %42, align 1, !tbaa !11
  store i8 %43, ptr %13, align 1, !tbaa !11
  %44 = load i32, ptr %11, align 4, !tbaa !14
  %45 = load i8, ptr %12, align 1, !tbaa !11
  %46 = zext i8 %45 to i32
  %47 = load i8, ptr %13, align 1, !tbaa !11
  %48 = zext i8 %47 to i32
  %49 = call noundef i32 @_Z18mbedtls_ct_uint_ifjjj(i32 noundef %44, i32 noundef %46, i32 noundef %48)
  %50 = trunc i32 %49 to i8
  %51 = load ptr, ptr %7, align 8, !tbaa !9
  %52 = load i64, ptr %9, align 8, !tbaa !7
  %53 = getelementptr inbounds nuw i8, ptr %51, i64 %52
  store volatile i8 %50, ptr %53, align 1, !tbaa !11
  call void @llvm.lifetime.end.p0(i64 1, ptr %13) #5
  call void @llvm.lifetime.end.p0(i64 1, ptr %12) #5
  br label %54

54:                                               ; preds = %34
  %55 = load i64, ptr %9, align 8, !tbaa !7
  %56 = add i64 %55, 1
  store i64 %56, ptr %9, align 8, !tbaa !7
  br label %29, !llvm.loop !32

57:                                               ; preds = %29
  %58 = load i32, ptr %11, align 4, !tbaa !14
  %59 = load ptr, ptr %7, align 8, !tbaa !9
  %60 = load i64, ptr %5, align 8, !tbaa !7
  %61 = sub i64 %60, 1
  %62 = getelementptr inbounds nuw i8, ptr %59, i64 %61
  %63 = load volatile i8, ptr %62, align 1, !tbaa !11
  %64 = zext i8 %63 to i32
  %65 = call noundef i32 @_Z18mbedtls_ct_uint_ifjjj(i32 noundef %58, i32 noundef %64, i32 noundef 0)
  %66 = trunc i32 %65 to i8
  %67 = load ptr, ptr %7, align 8, !tbaa !9
  %68 = load i64, ptr %5, align 8, !tbaa !7
  %69 = sub i64 %68, 1
  %70 = getelementptr inbounds nuw i8, ptr %67, i64 %69
  store volatile i8 %66, ptr %70, align 1, !tbaa !11
  call void @llvm.lifetime.end.p0(i64 4, ptr %11) #5
  br label %71

71:                                               ; preds = %57
  %72 = load i64, ptr %8, align 8, !tbaa !7
  %73 = add i64 %72, 1
  store i64 %73, ptr %8, align 8, !tbaa !7
  br label %19, !llvm.loop !33

74:                                               ; preds = %19
  store i32 0, ptr %10, align 4
  br label %75

75:                                               ; preds = %74, %17
  call void @llvm.lifetime.end.p0(i64 8, ptr %9) #5
  call void @llvm.lifetime.end.p0(i64 8, ptr %8) #5
  call void @llvm.lifetime.end.p0(i64 8, ptr %7) #5
  %76 = load i32, ptr %10, align 4
  switch i32 %76, label %78 [
    i32 0, label %77
    i32 1, label %77
  ]

77:                                               ; preds = %75, %75
  ret void

78:                                               ; preds = %75
  unreachable
}

; Function Attrs: mustprogress nounwind uwtable
define hidden noundef i32 @_Z20mbedtls_ct_uint_maskj(i32 noundef %0) #0 {
  %2 = alloca i32, align 4
  store i32 %0, ptr %2, align 4, !tbaa !14
  %3 = load i32, ptr %2, align 4, !tbaa !14
  %4 = load i32, ptr %2, align 4, !tbaa !14
  %5 = sub i32 0, %4
  %6 = or i32 %3, %5
  %7 = lshr i32 %6, 31
  %8 = sub i32 0, %7
  ret i32 %8
}

; Function Attrs: mustprogress nounwind uwtable
define internal noundef i32 @_ZL18mbedtls_ct_size_gtmm(i64 noundef %0, i64 noundef %1) #0 {
  %3 = alloca i64, align 8
  %4 = alloca i64, align 8
  store i64 %0, ptr %3, align 8, !tbaa !7
  store i64 %1, ptr %4, align 8, !tbaa !7
  %5 = load i64, ptr %4, align 8, !tbaa !7
  %6 = load i64, ptr %3, align 8, !tbaa !7
  %7 = sub i64 %5, %6
  %8 = lshr i64 %7, 63
  %9 = trunc i64 %8 to i32
  ret i32 %9
}

; Function Attrs: mustprogress nounwind uwtable
define hidden noundef i32 @_Z18mbedtls_ct_uint_ifjjj(i32 noundef %0, i32 noundef %1, i32 noundef %2) #0 {
  %4 = alloca i32, align 4
  %5 = alloca i32, align 4
  %6 = alloca i32, align 4
  %7 = alloca i32, align 4
  store i32 %0, ptr %4, align 4, !tbaa !14
  store i32 %1, ptr %5, align 4, !tbaa !14
  store i32 %2, ptr %6, align 4, !tbaa !14
  call void @llvm.lifetime.start.p0(i64 4, ptr %7) #5
  %8 = load i32, ptr %4, align 4, !tbaa !14
  %9 = call noundef i32 @_Z20mbedtls_ct_uint_maskj(i32 noundef %8)
  store i32 %9, ptr %7, align 4, !tbaa !14
  %10 = load i32, ptr %7, align 4, !tbaa !14
  %11 = load i32, ptr %5, align 4, !tbaa !14
  %12 = and i32 %10, %11
  %13 = load i32, ptr %7, align 4, !tbaa !14
  %14 = xor i32 %13, -1
  %15 = load i32, ptr %6, align 4, !tbaa !14
  %16 = and i32 %14, %15
  %17 = or i32 %12, %16
  call void @llvm.lifetime.end.p0(i64 4, ptr %7) #5
  ret i32 %17
}

; Function Attrs: mustprogress uwtable
define hidden noundef i32 @_Z36mbedtls_ct_rsaes_pkcs1_v15_unpaddingPhmS_mPm(ptr noundef %0, i64 noundef %1, ptr noundef %2, i64 noundef %3, ptr noundef %4) #2 {
  %6 = alloca ptr, align 8
  %7 = alloca i64, align 8
  %8 = alloca ptr, align 8
  %9 = alloca i64, align 8
  %10 = alloca ptr, align 8
  %11 = alloca i32, align 4
  %12 = alloca i64, align 8
  %13 = alloca i64, align 8
  %14 = alloca i64, align 8
  %15 = alloca i32, align 4
  %16 = alloca i8, align 1
  %17 = alloca i64, align 8
  %18 = alloca i32, align 4
  store ptr %0, ptr %6, align 8, !tbaa !9
  store i64 %1, ptr %7, align 8, !tbaa !7
  store ptr %2, ptr %8, align 8, !tbaa !9
  store i64 %3, ptr %9, align 8, !tbaa !7
  store ptr %4, ptr %10, align 8, !tbaa !16
  call void @llvm.lifetime.start.p0(i64 4, ptr %11) #5
  store i32 -110, ptr %11, align 4, !tbaa !14
  call void @llvm.lifetime.start.p0(i64 8, ptr %12) #5
  call void @llvm.lifetime.start.p0(i64 8, ptr %13) #5
  call void @llvm.lifetime.start.p0(i64 8, ptr %14) #5
  store i64 0, ptr %14, align 8, !tbaa !7
  call void @llvm.lifetime.start.p0(i64 4, ptr %15) #5
  store i32 0, ptr %15, align 4, !tbaa !14
  call void @llvm.lifetime.start.p0(i64 1, ptr %16) #5
  store i8 0, ptr %16, align 1, !tbaa !11
  call void @llvm.lifetime.start.p0(i64 8, ptr %17) #5
  store i64 0, ptr %17, align 8, !tbaa !7
  call void @llvm.lifetime.start.p0(i64 4, ptr %18) #5
  %19 = load i64, ptr %9, align 8, !tbaa !7
  %20 = load i64, ptr %7, align 8, !tbaa !7
  %21 = sub i64 %20, 11
  %22 = icmp ugt i64 %19, %21
  br i1 %22, label %23, label %26

23:                                               ; preds = %5
  %24 = load i64, ptr %7, align 8, !tbaa !7
  %25 = sub i64 %24, 11
  br label %28

26:                                               ; preds = %5
  %27 = load i64, ptr %9, align 8, !tbaa !7
  br label %28

28:                                               ; preds = %26, %23
  %29 = phi i64 [ %25, %23 ], [ %27, %26 ]
  store i64 %29, ptr %13, align 8, !tbaa !7
  %30 = load ptr, ptr %6, align 8, !tbaa !9
  %31 = getelementptr inbounds i8, ptr %30, i64 0
  %32 = load i8, ptr %31, align 1, !tbaa !11
  %33 = zext i8 %32 to i32
  %34 = load i32, ptr %15, align 4, !tbaa !14
  %35 = or i32 %34, %33
  store i32 %35, ptr %15, align 4, !tbaa !14
  %36 = load ptr, ptr %6, align 8, !tbaa !9
  %37 = getelementptr inbounds i8, ptr %36, i64 1
  %38 = load i8, ptr %37, align 1, !tbaa !11
  %39 = zext i8 %38 to i32
  %40 = xor i32 %39, 2
  %41 = load i32, ptr %15, align 4, !tbaa !14
  %42 = or i32 %41, %40
  store i32 %42, ptr %15, align 4, !tbaa !14
  store i64 2, ptr %12, align 8, !tbaa !7
  br label %43

43:                                               ; preds = %81, %28
  %44 = load i64, ptr %12, align 8, !tbaa !7
  %45 = load i64, ptr %7, align 8, !tbaa !7
  %46 = icmp ult i64 %44, %45
  br i1 %46, label %47, label %84

47:                                               ; preds = %43
  %48 = load ptr, ptr %6, align 8, !tbaa !9
  %49 = load i64, ptr %12, align 8, !tbaa !7
  %50 = getelementptr inbounds nuw i8, ptr %48, i64 %49
  %51 = load i8, ptr %50, align 1, !tbaa !11
  %52 = zext i8 %51 to i32
  %53 = load ptr, ptr %6, align 8, !tbaa !9
  %54 = load i64, ptr %12, align 8, !tbaa !7
  %55 = getelementptr inbounds nuw i8, ptr %53, i64 %54
  %56 = load i8, ptr %55, align 1, !tbaa !11
  %57 = zext i8 %56 to i32
  %58 = sub nsw i32 0, %57
  %59 = trunc i32 %58 to i8
  %60 = zext i8 %59 to i32
  %61 = or i32 %52, %60
  %62 = ashr i32 %61, 7
  %63 = xor i32 %62, 1
  %64 = load i8, ptr %16, align 1, !tbaa !11
  %65 = zext i8 %64 to i32
  %66 = or i32 %65, %63
  %67 = trunc i32 %66 to i8
  store i8 %67, ptr %16, align 1, !tbaa !11
  %68 = load i8, ptr %16, align 1, !tbaa !11
  %69 = zext i8 %68 to i32
  %70 = load i8, ptr %16, align 1, !tbaa !11
  %71 = zext i8 %70 to i32
  %72 = sub nsw i32 0, %71
  %73 = trunc i32 %72 to i8
  %74 = zext i8 %73 to i32
  %75 = or i32 %69, %74
  %76 = ashr i32 %75, 7
  %77 = xor i32 %76, 1
  %78 = sext i32 %77 to i64
  %79 = load i64, ptr %14, align 8, !tbaa !7
  %80 = add i64 %79, %78
  store i64 %80, ptr %14, align 8, !tbaa !7
  br label %81

81:                                               ; preds = %47
  %82 = load i64, ptr %12, align 8, !tbaa !7
  %83 = add i64 %82, 1
  store i64 %83, ptr %12, align 8, !tbaa !7
  br label %43, !llvm.loop !30

84:                                               ; preds = %43
  %85 = load i8, ptr %16, align 1, !tbaa !11
  %86 = zext i8 %85 to i32
  %87 = call noundef i32 @_Z18mbedtls_ct_uint_ifjjj(i32 noundef %86, i32 noundef 0, i32 noundef 1)
  %88 = load i32, ptr %15, align 4, !tbaa !14
  %89 = or i32 %88, %87
  store i32 %89, ptr %15, align 4, !tbaa !14
  %90 = load i64, ptr %14, align 8, !tbaa !7
  %91 = call noundef i32 @_ZL18mbedtls_ct_size_gtmm(i64 noundef 8, i64 noundef %90)
  %92 = load i32, ptr %15, align 4, !tbaa !14
  %93 = or i32 %92, %91
  store i32 %93, ptr %15, align 4, !tbaa !14
  %94 = load i32, ptr %15, align 4, !tbaa !14
  %95 = load i64, ptr %13, align 8, !tbaa !7
  %96 = trunc i64 %95 to i32
  %97 = load i64, ptr %7, align 8, !tbaa !7
  %98 = load i64, ptr %14, align 8, !tbaa !7
  %99 = sub i64 %97, %98
  %100 = sub i64 %99, 3
  %101 = trunc i64 %100 to i32
  %102 = call noundef i32 @_Z18mbedtls_ct_uint_ifjjj(i32 noundef %94, i32 noundef %96, i32 noundef %101)
  %103 = zext i32 %102 to i64
  store i64 %103, ptr %17, align 8, !tbaa !7
  %104 = load i64, ptr %17, align 8, !tbaa !7
  %105 = load i64, ptr %13, align 8, !tbaa !7
  %106 = call noundef i32 @_ZL18mbedtls_ct_size_gtmm(i64 noundef %104, i64 noundef %105)
  store i32 %106, ptr %18, align 4, !tbaa !14
  %107 = load i32, ptr %15, align 4, !tbaa !14
  %108 = load i32, ptr %18, align 4, !tbaa !14
  %109 = call noundef i32 @_Z18mbedtls_ct_uint_ifjjj(i32 noundef %108, i32 noundef 17408, i32 noundef 0)
  %110 = call noundef i32 @_Z18mbedtls_ct_uint_ifjjj(i32 noundef %107, i32 noundef 16640, i32 noundef %109)
  %111 = sub nsw i32 0, %110
  store i32 %111, ptr %11, align 4, !tbaa !14
  %112 = load i32, ptr %15, align 4, !tbaa !14
  %113 = load i32, ptr %18, align 4, !tbaa !14
  %114 = or i32 %112, %113
  %115 = call noundef i32 @_Z20mbedtls_ct_uint_maskj(i32 noundef %114)
  store i32 %115, ptr %15, align 4, !tbaa !14
  store i64 11, ptr %12, align 8, !tbaa !7
  br label %116

116:                                              ; preds = %130, %84
  %117 = load i64, ptr %12, align 8, !tbaa !7
  %118 = load i64, ptr %7, align 8, !tbaa !7
  %119 = icmp ult i64 %117, %118
  br i1 %119, label %120, label %133

120:                                              ; preds = %116
  %121 = load i32, ptr %15, align 4, !tbaa !14
  %122 = xor i32 %121, -1
  %123 = load ptr, ptr %6, align 8, !tbaa !9
  %124 = load i64, ptr %12, align 8, !tbaa !7
  %125 = getelementptr inbounds nuw i8, ptr %123, i64 %124
  %126 = load i8, ptr %125, align 1, !tbaa !11
  %127 = zext i8 %126 to i32
  %128 = and i32 %127, %122
  %129 = trunc i32 %128 to i8
  store i8 %129, ptr %125, align 1, !tbaa !11
  br label %130

130:                                              ; preds = %120
  %131 = load i64, ptr %12, align 8, !tbaa !7
  %132 = add i64 %131, 1
  store i64 %132, ptr %12, align 8, !tbaa !7
  br label %116, !llvm.loop !31

133:                                              ; preds = %116
  %134 = load i32, ptr %18, align 4, !tbaa !14
  %135 = load i64, ptr %13, align 8, !tbaa !7
  %136 = trunc i64 %135 to i32
  %137 = load i64, ptr %17, align 8, !tbaa !7
  %138 = trunc i64 %137 to i32
  %139 = call noundef i32 @_Z18mbedtls_ct_uint_ifjjj(i32 noundef %134, i32 noundef %136, i32 noundef %138)
  %140 = zext i32 %139 to i64
  store i64 %140, ptr %17, align 8, !tbaa !7
  %141 = load ptr, ptr %6, align 8, !tbaa !9
  %142 = load i64, ptr %7, align 8, !tbaa !7
  %143 = getelementptr inbounds nuw i8, ptr %141, i64 %142
  %144 = load i64, ptr %13, align 8, !tbaa !7
  %145 = sub i64 0, %144
  %146 = getelementptr inbounds i8, ptr %143, i64 %145
  %147 = load i64, ptr %13, align 8, !tbaa !7
  %148 = load i64, ptr %13, align 8, !tbaa !7
  %149 = load i64, ptr %17, align 8, !tbaa !7
  %150 = sub i64 %148, %149
  call void @_ZL27mbedtls_ct_mem_move_to_leftPvmm(ptr noundef %146, i64 noundef %147, i64 noundef %150)
  %151 = load i64, ptr %9, align 8, !tbaa !7
  %152 = icmp ne i64 %151, 0
  br i1 %152, label %153, label %162

153:                                              ; preds = %133
  %154 = load ptr, ptr %8, align 8, !tbaa !9
  %155 = load ptr, ptr %6, align 8, !tbaa !9
  %156 = load i64, ptr %7, align 8, !tbaa !7
  %157 = getelementptr inbounds nuw i8, ptr %155, i64 %156
  %158 = load i64, ptr %13, align 8, !tbaa !7
  %159 = sub i64 0, %158
  %160 = getelementptr inbounds i8, ptr %157, i64 %159
  %161 = load i64, ptr %13, align 8, !tbaa !7
  call void @llvm.memcpy.p0.p0.i64(ptr align 1 %154, ptr align 1 %160, i64 %161, i1 false)
  br label %162

162:                                              ; preds = %153, %133
  %163 = load i64, ptr %17, align 8, !tbaa !7
  %164 = load ptr, ptr %10, align 8, !tbaa !16
  store i64 %163, ptr %164, align 8, !tbaa !7
  %165 = load i32, ptr %11, align 4, !tbaa !14
  call void @llvm.lifetime.end.p0(i64 4, ptr %18) #5
  call void @llvm.lifetime.end.p0(i64 8, ptr %17) #5
  call void @llvm.lifetime.end.p0(i64 1, ptr %16) #5
  call void @llvm.lifetime.end.p0(i64 4, ptr %15) #5
  call void @llvm.lifetime.end.p0(i64 8, ptr %14) #5
  call void @llvm.lifetime.end.p0(i64 8, ptr %13) #5
  call void @llvm.lifetime.end.p0(i64 8, ptr %12) #5
  call void @llvm.lifetime.end.p0(i64 4, ptr %11) #5
  ret i32 %165
}