; Function Attrs: mustprogress nofree norecurse nounwind memory(argmem: readwrite, inaccessiblemem: readwrite) uwtable
define hidden noundef range(i32 -17408, 1) i32 @_Z36mbedtls_ct_rsaes_pkcs1_v15_unpaddingPhmS_mPm(ptr noundef %0, i64 noundef %1, ptr noundef writeonly captures(none) %2, i64 noundef %3, ptr noundef writeonly captures(none) %4) local_unnamed_addr #0 {
  %6 = add i64 %1, -11
  %7 = tail call i64 @llvm.umin.i64(i64 %3, i64 %6)
  %8 = load i8, ptr %0, align 1, !tbaa !3
  %9 = getelementptr inbounds nuw i8, ptr %0, i64 1
  %10 = load i8, ptr %9, align 1, !tbaa !3
  %11 = xor i8 %10, 2
  %12 = or i8 %11, %8
  %13 = icmp ugt i64 %1, 2
  br i1 %13, label %.lr.ph, label %._crit_edge

.lr.ph:                                           ; preds = %5, %.lr.ph
  %.065 = phi i8 [ %18, %.lr.ph ], [ 0, %5 ]
  %.05664 = phi i64 [ %24, %.lr.ph ], [ 0, %5 ]
  %.05763 = phi i64 [ %25, %.lr.ph ], [ 2, %5 ]
  %14 = getelementptr inbounds nuw i8, ptr %0, i64 %.05763
  %15 = load i8, ptr %14, align 1, !tbaa !3
  %16 = icmp eq i8 %15, 0
  %17 = zext i1 %16 to i8
  %18 = or i8 %.065, %17
  %19 = add nsw i8 %18, -1
  %20 = xor i8 %.065, -1
  %21 = and i8 %19, %20
  %22 = lshr i8 %21, 7
  %23 = zext nneg i8 %22 to i64
  %24 = add i64 %.05664, %23
  %25 = add nuw i64 %.05763, 1
  %exitcond.not = icmp eq i64 %25, %1
  br i1 %exitcond.not, label %._crit_edge.loopexit, label %.lr.ph, !llvm.loop !22

._crit_edge.loopexit:                             ; preds = %.lr.ph
  %26 = icmp eq i8 %18, 0
  %27 = zext i1 %26 to i8
  br label %._crit_edge

._crit_edge:                                      ; preds = %._crit_edge.loopexit, %5
  %.056.lcssa = phi i64 [ 0, %5 ], [ %24, %._crit_edge.loopexit ]
  %.0.lcssa = phi i8 [ 1, %5 ], [ %27, %._crit_edge.loopexit ]
  %28 = or i8 %12, %.0.lcssa
  %29 = zext i8 %28 to i32
  %30 = add i64 %.056.lcssa, -8
  %31 = lshr i64 %30, 63
  %32 = trunc nuw nsw i64 %31 to i32
  %33 = or i32 %29, %32
  %34 = trunc i64 %7 to i32
  %35 = sub i64 %1, %.056.lcssa
  %36 = trunc i64 %35 to i32
  %37 = add i32 %36, -3
  %38 = icmp eq i32 %33, 0
  %39 = select i1 %38, i32 %37, i32 %34
  %40 = zext i32 %39 to i64
  %41 = sub i64 %7, %40
  %42 = icmp sgt i64 %41, -1
  %43 = icmp ugt i64 %1, 11
  br i1 %43, label %.lr.ph69, label %._crit_edge70

.lr.ph69:                                         ; preds = %._crit_edge
  %44 = lshr i64 %41, 63
  %45 = trunc nuw nsw i64 %44 to i32
  %46 = or i32 %33, %45
  %.fr71 = freeze i32 %46
  %47 = icmp eq i32 %.fr71, 0
  br i1 %47, label %._crit_edge70, label %.lr.ph69.split.preheader

.lr.ph69.split.preheader:                         ; preds = %.lr.ph69
  %scevgep = getelementptr i8, ptr %0, i64 11
  tail call void @llvm.memset.p0.i64(ptr align 1 %scevgep, i8 0, i64 %6, i1 false), !tbaa !3
  br label %._crit_edge70

._crit_edge70:                                    ; preds = %.lr.ph69, %.lr.ph69.split.preheader, %._crit_edge
  %48 = select i1 %42, i32 %39, i32 %34
  %49 = zext i32 %48 to i64
  %50 = getelementptr inbounds nuw i8, ptr %0, i64 %1
  %51 = sub i64 0, %7
  %52 = getelementptr inbounds i8, ptr %50, i64 %51
  %53 = icmp eq i64 %7, 0
  br i1 %53, label %_ZL27mbedtls_ct_mem_move_to_leftPvmm.exit, label %.preheader.i

.preheader.i:                                     ; preds = %._crit_edge70
  %54 = add i64 %7, -1
  %.not.i = icmp eq i64 %54, 0
  %55 = getelementptr inbounds i8, ptr %50, i64 -1
  br i1 %.not.i, label %.preheader.split.i, label %.lr.ph.us.i

.lr.ph.us.i:                                      ; preds = %.preheader.i, %._crit_edge.us.i
  %.028.us.i = phi i64 [ %66, %._crit_edge.us.i ], [ 0, %.preheader.i ]
  %56 = sub i64 %.028.us.i, %49
  %57 = icmp slt i64 %56, 0
  br i1 %57, label %.lr.ph.split.us.us.i, label %.lr.ph.split.us31.i

.lr.ph.split.us31.i:                              ; preds = %.lr.ph.us.i, %.lr.ph.split.us31.i
  %.02427.us29.i = phi i64 [ %60, %.lr.ph.split.us31.i ], [ 0, %.lr.ph.us.i ]
  %58 = getelementptr inbounds nuw i8, ptr %52, i64 %.02427.us29.i
  %59 = load volatile i8, ptr %58, align 1, !tbaa !3
  %60 = add nuw i64 %.02427.us29.i, 1
  %61 = getelementptr inbounds nuw i8, ptr %52, i64 %60
  %62 = load volatile i8, ptr %61, align 1, !tbaa !3
  store volatile i8 %62, ptr %58, align 1, !tbaa !3
  %exitcond.not.i = icmp eq i64 %60, %54
  br i1 %exitcond.not.i, label %._crit_edge.us.i, label %.lr.ph.split.us31.i, !llvm.loop !23

._crit_edge.us.i:                                 ; preds = %.lr.ph.split.us31.i, %.lr.ph.split.us.us.i
  %63 = load volatile i8, ptr %55, align 1, !tbaa !3
  %64 = icmp sgt i64 %56, -1
  %65 = select i1 %64, i8 0, i8 %63
  store volatile i8 %65, ptr %55, align 1, !tbaa !3
  %66 = add nuw i64 %.028.us.i, 1
  %exitcond35.not.i = icmp eq i64 %66, %7
  br i1 %exitcond35.not.i, label %_ZL27mbedtls_ct_mem_move_to_leftPvmm.exit, label %.lr.ph.us.i, !llvm.loop !24

.lr.ph.split.us.us.i:                             ; preds = %.lr.ph.us.i, %.lr.ph.split.us.us.i
  %.02427.us.us.i = phi i64 [ %69, %.lr.ph.split.us.us.i ], [ 0, %.lr.ph.us.i ]
  %67 = getelementptr inbounds nuw i8, ptr %52, i64 %.02427.us.us.i
  %68 = load volatile i8, ptr %67, align 1, !tbaa !3
  %69 = add nuw i64 %.02427.us.us.i, 1
  %70 = getelementptr inbounds nuw i8, ptr %52, i64 %69
  %71 = load volatile i8, ptr %70, align 1, !tbaa !3
  store volatile i8 %68, ptr %67, align 1, !tbaa !3
  %exitcond34.not.i = icmp eq i64 %69, %54
  br i1 %exitcond34.not.i, label %._crit_edge.us.i, label %.lr.ph.split.us.us.i, !llvm.loop !23

.preheader.split.i:                               ; preds = %.preheader.i, %.preheader.split.i
  %.028.i = phi i64 [ %76, %.preheader.split.i ], [ 0, %.preheader.i ]
  %72 = sub i64 %.028.i, %49
  %73 = load volatile i8, ptr %55, align 1, !tbaa !3
  %74 = icmp sgt i64 %72, -1
  %75 = select i1 %74, i8 0, i8 %73
  store volatile i8 %75, ptr %55, align 1, !tbaa !3
  %76 = add nuw i64 %.028.i, 1
  %exitcond36.not.i = icmp eq i64 %76, %7
  br i1 %exitcond36.not.i, label %_ZL27mbedtls_ct_mem_move_to_leftPvmm.exit, label %.preheader.split.i, !llvm.loop !24

_ZL27mbedtls_ct_mem_move_to_leftPvmm.exit:        ; preds = %._crit_edge.us.i, %.preheader.split.i, %._crit_edge70
  %.not = icmp eq i64 %3, 0
  br i1 %.not, label %78, label %77

77:                                               ; preds = %_ZL27mbedtls_ct_mem_move_to_leftPvmm.exit
  tail call void @llvm.memcpy.p0.p0.i64(ptr align 1 %2, ptr nonnull align 1 %52, i64 %7, i1 false)
  br label %78

78:                                               ; preds = %77, %_ZL27mbedtls_ct_mem_move_to_leftPvmm.exit
  %.neg = select i1 %42, i32 0, i32 -17408
  %.neg60 = select i1 %38, i32 %.neg, i32 -16640
  store i64 %49, ptr %4, align 8, !tbaa !8
  ret i32 %.neg60
}